target datalayout = "e-m:e-p270:32:32-p271:32:32-p272:64:64-i64:64-i128:128-f80:128-n8:16:32:64-S128"
target triple = "x86_64-pc-linux-gnu"

%"class.OpenColorIO_v2_5dev::FileRules::Impl" = type { %"class.std::vector" }
%"class.std::vector" = type { %"struct.std::_Vector_base" }
%"struct.std::_Vector_base" = type { %"struct.std::_Vector_base<std::shared_ptr<OpenColorIO_v2_5dev::FileRule>, std::allocator<std::shared_ptr<OpenColorIO_v2_5dev::FileRule>>>::_Vector_impl" }
%"struct.std::_Vector_base<std::shared_ptr<OpenColorIO_v2_5dev::FileRule>, std::allocator<std::shared_ptr<OpenColorIO_v2_5dev::FileRule>>>::_Vector_impl" = type { %"struct.std::_Vector_base<std::shared_ptr<OpenColorIO_v2_5dev::FileRule>, std::allocator<std::shared_ptr<OpenColorIO_v2_5dev::FileRule>>>::_Vector_impl_data" }
%"struct.std::_Vector_base<std::shared_ptr<OpenColorIO_v2_5dev::FileRule>, std::allocator<std::shared_ptr<OpenColorIO_v2_5dev::FileRule>>>::_Vector_impl_data" = type { ptr, ptr, ptr }
%"class.std::__shared_count" = type { ptr }
%"class.__gnu_cxx::__normal_iterator" = type { ptr }
%"class.std::shared_ptr.0" = type { %"class.std::__shared_ptr.1" }
%"class.std::__shared_ptr.1" = type { ptr, %"class.std::__shared_count" }

; Function Attrs: mustprogress nounwind uwtable
define linkonce_odr hidden noundef ptr @_ZNKSt12__shared_ptrIN19OpenColorIO_v2_5dev8FileRuleELN9__gnu_cxx12_Lock_policyE2EE3getEv(ptr noundef nonnull align 8 dereferenceable(16) %0) #3 comdat align 2 {
  %2 = alloca ptr, align 8
  store ptr %0, ptr %2, align 8, !tbaa !1318
  %3 = load ptr, ptr %2, align 8
  %4 = getelementptr inbounds nuw %"class.std::__shared_ptr.1", ptr %3, i32 0, i32 0
  %5 = load ptr, ptr %4, align 8, !tbaa !1320
  ret ptr %5
}

; Function Attrs: mustprogress nounwind uwtable
define linkonce_odr hidden noundef ptr @_ZNKSt19__shared_ptr_accessIN19OpenColorIO_v2_5dev8FileRuleELN9__gnu_cxx12_Lock_policyE2ELb0ELb0EE6_M_getEv(ptr noundef nonnull align 1 dereferenceable(1) %0) #3 comdat align 2 {
  %2 = alloca ptr, align 8
  store ptr %0, ptr %2, align 8, !tbaa !32
  %3 = load ptr, ptr %2, align 8
  %4 = call noundef ptr @_ZNKSt12__shared_ptrIN19OpenColorIO_v2_5dev8FileRuleELN9__gnu_cxx12_Lock_policyE2EE3getEv(ptr noundef nonnull align 8 dereferenceable(16) %3) #21
  ret ptr %4
}

; Function Attrs: mustprogress nounwind uwtable
define linkonce_odr hidden noundef nonnull align 8 dereferenceable(8) ptr @_ZNK9__gnu_cxx17__normal_iteratorIPKSt10shared_ptrIN19OpenColorIO_v2_5dev8FileRuleEESt6vectorIS4_SaIS4_EEE4baseEv(ptr noundef nonnull align 8 dereferenceable(8) %0) #3 comdat align 2 {
  %2 = alloca ptr, align 8
  store ptr %0, ptr %2, align 8, !tbaa !57
  %3 = load ptr, ptr %2, align 8
  %4 = getelementptr inbounds nuw %"class.__gnu_cxx::__normal_iterator", ptr %3, i32 0, i32 0
  ret ptr %4
}

; Function Attrs: mustprogress nounwind uwtable
define linkonce_odr hidden void @_ZN9__gnu_cxx17__normal_iteratorIPKSt10shared_ptrIN19OpenColorIO_v2_5dev8FileRuleEESt6vectorIS4_SaIS4_EEEC2ERKS6_(ptr noundef nonnull align 8 dereferenceable(8) %0, ptr noundef nonnull align 8 dereferenceable(8) %1) unnamed_addr #3 comdat align 2 {
  %3 = alloca ptr, align 8
  %4 = alloca ptr, align 8
  store ptr %0, ptr %3, align 8, !tbaa !57
  store ptr %1, ptr %4, align 8, !tbaa !1420
  %5 = load ptr, ptr %3, align 8
  %6 = getelementptr inbounds nuw %"class.__gnu_cxx::__normal_iterator", ptr %5, i32 0, i32 0
  %7 = load ptr, ptr %4, align 8, !tbaa !1420
  %8 = load ptr, ptr %7, align 8, !tbaa !21
  store ptr %8, ptr %6, align 8, !tbaa !59
  ret void
}

; Function Attrs: mustprogress nounwind uwtable
define linkonce_odr hidden noundef nonnull align 8 dereferenceable(8) ptr @_ZN9__gnu_cxx17__normal_iteratorIPKSt10shared_ptrIN19OpenColorIO_v2_5dev8FileRuleEESt6vectorIS4_SaIS4_EEEppEv(ptr noundef nonnull align 8 dereferenceable(8) %0) #3 comdat align 2 {
  %2 = alloca ptr, align 8
  store ptr %0, ptr %2, align 8, !tbaa !57
  %3 = load ptr, ptr %2, align 8
  %4 = getelementptr inbounds nuw %"class.__gnu_cxx::__normal_iterator", ptr %3, i32 0, i32 0
  %5 = load ptr, ptr %4, align 8, !tbaa !59
  %6 = getelementptr inbounds nuw %"class.std::shared_ptr.0", ptr %5, i32 1
  store ptr %6, ptr %4, align 8, !tbaa !59
  ret ptr %3
}

; Function Attrs: mustprogress nounwind uwtable
define linkonce_odr hidden noundef ptr @_ZNKSt19__shared_ptr_accessIN19OpenColorIO_v2_5dev8FileRuleELN9__gnu_cxx12_Lock_policyE2ELb0ELb0EEptEv(ptr noundef nonnull align 1 dereferenceable(1) %0) #3 comdat align 2 {
  %2 = alloca ptr, align 8
  store ptr %0, ptr %2, align 8, !tbaa !32
  %3 = load ptr, ptr %2, align 8
  %4 = call noundef ptr @_ZNKSt19__shared_ptr_accessIN19OpenColorIO_v2_5dev8FileRuleELN9__gnu_cxx12_Lock_policyE2ELb0ELb0EE6_M_getEv(ptr noundef nonnull align 1 dereferenceable(1) %3) #21
  ret ptr %4
}

; Function Attrs: mustprogress nounwind uwtable
define linkonce_odr hidden noundef nonnull align 8 dereferenceable(16) ptr @_ZNK9__gnu_cxx17__normal_iteratorIPKSt10shared_ptrIN19OpenColorIO_v2_5dev8FileRuleEESt6vectorIS4_SaIS4_EEEdeEv(ptr noundef nonnull align 8 dereferenceable(8) %0) #3 comdat align 2 {
  %2 = alloca ptr, align 8
  store ptr %0, ptr %2, align 8, !tbaa !57
  %3 = load ptr, ptr %2, align 8
  %4 = getelementptr inbounds nuw %"class.__gnu_cxx::__normal_iterator", ptr %3, i32 0, i32 0
  %5 = load ptr, ptr %4, align 8, !tbaa !59
  ret ptr %5
}

; Function Attrs: inlinehint mustprogress nounwind uwtable
define linkonce_odr hidden noundef zeroext i1 @_ZN9__gnu_cxxneIPKSt10shared_ptrIN19OpenColorIO_v2_5dev8FileRuleEESt6vectorIS4_SaIS4_EEEEbRKNS_17__normal_iteratorIT_T0_EESF_(ptr noundef nonnull align 8 dereferenceable(8) %0, ptr noundef nonnull align 8 dereferenceable(8) %1) #6 comdat {
  %3 = alloca ptr, align 8
  %4 = alloca ptr, align 8
  store ptr %0, ptr %3, align 8, !tbaa !57
  store ptr %1, ptr %4, align 8, !tbaa !57
  %5 = load ptr, ptr %3, align 8, !tbaa !57
  %6 = call noundef nonnull align 8 dereferenceable(8) ptr @_ZNK9__gnu_cxx17__normal_iteratorIPKSt10shared_ptrIN19OpenColorIO_v2_5dev8FileRuleEESt6vectorIS4_SaIS4_EEE4baseEv(ptr noundef nonnull align 8 dereferenceable(8) %5) #21
  %7 = load ptr, ptr %6, align 8, !tbaa !21
  %8 = load ptr, ptr %4, align 8, !tbaa !57
  %9 = call noundef nonnull align 8 dereferenceable(8) ptr @_ZNK9__gnu_cxx17__normal_iteratorIPKSt10shared_ptrIN19OpenColorIO_v2_5dev8FileRuleEESt6vectorIS4_SaIS4_EEE4baseEv(ptr noundef nonnull align 8 dereferenceable(8) %8) #21
  %10 = load ptr, ptr %9, align 8, !tbaa !21
  %11 = icmp ne ptr %7, %10
  ret i1 %11
}

; Function Attrs: mustprogress nounwind uwtable
define linkonce_odr hidden ptr @_ZNKSt6vectorISt10shared_ptrIN19OpenColorIO_v2_5dev8FileRuleEESaIS3_EE3endEv(ptr noundef nonnull align 8 dereferenceable(24) %0) #3 comdat align 2 {
  %2 = alloca %"class.__gnu_cxx::__normal_iterator", align 8
  %3 = alloca ptr, align 8
  store ptr %0, ptr %3, align 8, !tbaa !19
  %4 = load ptr, ptr %3, align 8
  %5 = getelementptr inbounds nuw %"struct.std::_Vector_base", ptr %4, i32 0, i32 0
  %6 = getelementptr inbounds nuw %"struct.std::_Vector_base<std::shared_ptr<OpenColorIO_v2_5dev::FileRule>, std::allocator<std::shared_ptr<OpenColorIO_v2_5dev::FileRule>>>::_Vector_impl_data", ptr %5, i32 0, i32 1
  call void @_ZN9__gnu_cxx17__normal_iteratorIPKSt10shared_ptrIN19OpenColorIO_v2_5dev8FileRuleEESt6vectorIS4_SaIS4_EEEC2ERKS6_(ptr noundef nonnull align 8 dereferenceable(8) %2, ptr noundef nonnull align 8 dereferenceable(8) %6) #21
  %7 = getelementptr inbounds nuw %"class.__gnu_cxx::__normal_iterator", ptr %2, i32 0, i32 0
  %8 = load ptr, ptr %7, align 8
  ret ptr %8
}

; Function Attrs: mustprogress nounwind uwtable
define linkonce_odr hidden ptr @_ZNKSt6vectorISt10shared_ptrIN19OpenColorIO_v2_5dev8FileRuleEESaIS3_EE5beginEv(ptr noundef nonnull align 8 dereferenceable(24) %0) #3 comdat align 2 {
  %2 = alloca %"class.__gnu_cxx::__normal_iterator", align 8
  %3 = alloca ptr, align 8
  store ptr %0, ptr %3, align 8, !tbaa !19
  %4 = load ptr, ptr %3, align 8
  %5 = getelementptr inbounds nuw %"struct.std::_Vector_base", ptr %4, i32 0, i32 0
  %6 = getelementptr inbounds nuw %"struct.std::_Vector_base<std::shared_ptr<OpenColorIO_v2_5dev::FileRule>, std::allocator<std::shared_ptr<OpenColorIO_v2_5dev::FileRule>>>::_Vector_impl_data", ptr %5, i32 0, i32 0
  call void @_ZN9__gnu_cxx17__normal_iteratorIPKSt10shared_ptrIN19OpenColorIO_v2_5dev8FileRuleEESt6vectorIS4_SaIS4_EEEC2ERKS6_(ptr noundef nonnull align 8 dereferenceable(8) %2, ptr noundef nonnull align 8 dereferenceable(8) %6) #21
  %7 = getelementptr inbounds nuw %"class.__gnu_cxx::__normal_iterator", ptr %2, i32 0, i32 0
  %8 = load ptr, ptr %7, align 8
  ret ptr %8
}

; Function Attrs: mustprogress nounwind uwtable
define linkonce_odr hidden noundef i64 @_ZNKSt6vectorISt10shared_ptrIN19OpenColorIO_v2_5dev8FileRuleEESaIS3_EE4sizeEv(ptr noundef nonnull align 8 dereferenceable(24) %0) #3 comdat align 2 {
  %2 = alloca ptr, align 8
  store ptr %0, ptr %2, align 8, !tbaa !19
  %3 = load ptr, ptr %2, align 8
  %4 = getelementptr inbounds nuw %"struct.std::_Vector_base", ptr %3, i32 0, i32 0
  %5 = getelementptr inbounds nuw %"struct.std::_Vector_base<std::shared_ptr<OpenColorIO_v2_5dev::FileRule>, std::allocator<std::shared_ptr<OpenColorIO_v2_5dev::FileRule>>>::_Vector_impl_data", ptr %4, i32 0, i32 1
  %6 = load ptr, ptr %5, align 8, !tbaa !53
  %7 = getelementptr inbounds nuw %"struct.std::_Vector_base", ptr %3, i32 0, i32 0
  %8 = getelementptr inbounds nuw %"struct.std::_Vector_base<std::shared_ptr<OpenColorIO_v2_5dev::FileRule>, std::allocator<std::shared_ptr<OpenColorIO_v2_5dev::FileRule>>>::_Vector_impl_data", ptr %7, i32 0, i32 0
  %9 = load ptr, ptr %8, align 8, !tbaa !56
  %10 = ptrtoint ptr %6 to i64
  %11 = ptrtoint ptr %9 to i64
  %12 = sub i64 %10, %11
  %13 = sdiv exact i64 %12, 16
  ret i64 %13
}

; Function Attrs: mustprogress uwtable
define void @_ZNK19OpenColorIO_v2_5dev9FileRules4Impl8validateERKNS_6ConfigE(ptr noundef nonnull align 8 dereferenceable(24) %0, ptr noundef nonnull align 8 dereferenceable(8) %1) #0 align 2 {
  %3 = alloca ptr, align 8
  %4 = alloca ptr, align 8
  %5 = alloca ptr, align 8
  %6 = alloca %"class.__gnu_cxx::__normal_iterator", align 8
  %7 = alloca %"class.__gnu_cxx::__normal_iterator", align 8
  %8 = alloca ptr, align 8
  store ptr %0, ptr %3, align 8, !tbaa !13
  store ptr %1, ptr %4, align 8, !tbaa !74
  %9 = load ptr, ptr %3, align 8
  %10 = load ptr, ptr %4, align 8, !tbaa !74
  %11 = call noundef i32 @_ZNK19OpenColorIO_v2_5dev6Config15getMajorVersionEv(ptr noundef nonnull align 8 dereferenceable(8) %10)
  %12 = icmp uge i32 %11, 2
  br i1 %12, label %21, label %13

13:                                               ; preds = %2
  %14 = load ptr, ptr %4, align 8, !tbaa !74
  %15 = call noundef i32 @_ZNK19OpenColorIO_v2_5dev6Config15getMajorVersionEv(ptr noundef nonnull align 8 dereferenceable(8) %14)
  %16 = icmp eq i32 %15, 1
  br i1 %16, label %17, label %40

17:                                               ; preds = %13
  %18 = getelementptr inbounds nuw %"class.OpenColorIO_v2_5dev::FileRules::Impl", ptr %9, i32 0, i32 0
  %19 = call noundef i64 @_ZNKSt6vectorISt10shared_ptrIN19OpenColorIO_v2_5dev8FileRuleEESaIS3_EE4sizeEv(ptr noundef nonnull align 8 dereferenceable(24) %18) #21
  %20 = icmp ugt i64 %19, 2
  br i1 %20, label %21, label %40

21:                                               ; preds = %17, %2
  call void @llvm.lifetime.start.p0(i64 8, ptr %5) #21
  %22 = getelementptr inbounds nuw %"class.OpenColorIO_v2_5dev::FileRules::Impl", ptr %9, i32 0, i32 0
  store ptr %22, ptr %5, align 8, !tbaa !19
  call void @llvm.lifetime.start.p0(i64 8, ptr %6) #21
  %23 = load ptr, ptr %5, align 8, !tbaa !19
  %24 = call ptr @_ZNKSt6vectorISt10shared_ptrIN19OpenColorIO_v2_5dev8FileRuleEESaIS3_EE5beginEv(ptr noundef nonnull align 8 dereferenceable(24) %23) #21
  %25 = getelementptr inbounds nuw %"class.__gnu_cxx::__normal_iterator", ptr %6, i32 0, i32 0
  store ptr %24, ptr %25, align 8
  call void @llvm.lifetime.start.p0(i64 8, ptr %7) #21
  %26 = load ptr, ptr %5, align 8, !tbaa !19
  %27 = call ptr @_ZNKSt6vectorISt10shared_ptrIN19OpenColorIO_v2_5dev8FileRuleEESaIS3_EE3endEv(ptr noundef nonnull align 8 dereferenceable(24) %26) #21
  %28 = getelementptr inbounds nuw %"class.__gnu_cxx::__normal_iterator", ptr %7, i32 0, i32 0
  store ptr %27, ptr %28, align 8
  br label %29

29:                                               ; preds = %37, %21
  %30 = call noundef zeroext i1 @_ZN9__gnu_cxxneIPKSt10shared_ptrIN19OpenColorIO_v2_5dev8FileRuleEESt6vectorIS4_SaIS4_EEEEbRKNS_17__normal_iteratorIT_T0_EESF_(ptr noundef nonnull align 8 dereferenceable(8) %6, ptr noundef nonnull align 8 dereferenceable(8) %7) #21
  br i1 %30, label %32, label %31

31:                                               ; preds = %29
  call void @llvm.lifetime.end.p0(i64 8, ptr %7) #21
  call void @llvm.lifetime.end.p0(i64 8, ptr %6) #21
  call void @llvm.lifetime.end.p0(i64 8, ptr %5) #21
  br label %39

32:                                               ; preds = %29
  call void @llvm.lifetime.start.p0(i64 8, ptr %8) #21
  %33 = call noundef nonnull align 8 dereferenceable(16) ptr @_ZNK9__gnu_cxx17__normal_iteratorIPKSt10shared_ptrIN19OpenColorIO_v2_5dev8FileRuleEESt6vectorIS4_SaIS4_EEEdeEv(ptr noundef nonnull align 8 dereferenceable(8) %6) #21
  store ptr %33, ptr %8, align 8, !tbaa !21
  %34 = load ptr, ptr %8, align 8, !tbaa !21
  %35 = call noundef ptr @_ZNKSt19__shared_ptr_accessIN19OpenColorIO_v2_5dev8FileRuleELN9__gnu_cxx12_Lock_policyE2ELb0ELb0EEptEv(ptr noundef nonnull align 1 dereferenceable(1) %34) #21
  %36 = load ptr, ptr %4, align 8, !tbaa !74
  call void @_ZNK19OpenColorIO_v2_5dev8FileRule8validateERKNS_6ConfigE(ptr noundef nonnull align 8 dereferenceable(212) %35, ptr noundef nonnull align 8 dereferenceable(8) %36)
  call void @llvm.lifetime.end.p0(i64 8, ptr %8) #21
  br label %37

37:                                               ; preds = %32
  %38 = call noundef nonnull align 8 dereferenceable(8) ptr @_ZN9__gnu_cxx17__normal_iteratorIPKSt10shared_ptrIN19OpenColorIO_v2_5dev8FileRuleEESt6vectorIS4_SaIS4_EEEppEv(ptr noundef nonnull align 8 dereferenceable(8) %6) #21
  br label %29

39:                                               ; preds = %31
  br label %40

40:                                               ; preds = %39, %17, %13
  ret void
}