; Function Attrs: mustprogress uwtable
define void @_ZNK19OpenColorIO_v2_5dev9FileRules4Impl8validateERKNS_6ConfigE(ptr noundef nonnull readonly align 8 captures(none) dereferenceable(24) %0, ptr noundef nonnull align 8 dereferenceable(8) %1) local_unnamed_addr #0 align 2 {
  %3 = tail call noundef i32 @_ZNK19OpenColorIO_v2_5dev6Config15getMajorVersionEv(ptr noundef nonnull align 8 dereferenceable(8) %1)
  %4 = icmp ugt i32 %3, 1
  br i1 %4, label %._crit_edge, label %5

._crit_edge:                                      ; preds = %2
  %.pre = load ptr, ptr %0, align 8, !tbaa !35
  %.phi.trans.insert = getelementptr inbounds nuw i8, ptr %0, i64 8
  %.pre12 = load ptr, ptr %.phi.trans.insert, align 8, !tbaa !35
  br label %16

5:                                                ; preds = %2
  %6 = tail call noundef i32 @_ZNK19OpenColorIO_v2_5dev6Config15getMajorVersionEv(ptr noundef nonnull align 8 dereferenceable(8) %1)
  %7 = icmp eq i32 %6, 1
  br i1 %7, label %8, label %.loopexit

8:                                                ; preds = %5
  %9 = getelementptr inbounds nuw i8, ptr %0, i64 8
  %10 = load ptr, ptr %9, align 8, !tbaa !14
  %11 = load ptr, ptr %0, align 8, !tbaa !11
  %12 = ptrtoint ptr %10 to i64
  %13 = ptrtoint ptr %11 to i64
  %14 = sub i64 %12, %13
  %15 = icmp ugt i64 %14, 32
  br i1 %15, label %16, label %.loopexit

16:                                               ; preds = %._crit_edge, %8
  %17 = phi ptr [ %.pre12, %._crit_edge ], [ %10, %8 ]
  %18 = phi ptr [ %.pre, %._crit_edge ], [ %11, %8 ]
  %.not10 = icmp eq ptr %18, %17
  br i1 %.not10, label %.loopexit, label %.lr.ph

.lr.ph:                                           ; preds = %16, %.lr.ph
  %.sroa.07.011 = phi ptr [ %20, %.lr.ph ], [ %18, %16 ]
  %19 = load ptr, ptr %.sroa.07.011, align 8, !tbaa !36
  tail call void @_ZNK19OpenColorIO_v2_5dev8FileRule8validateERKNS_6ConfigE(ptr noundef nonnull align 8 dereferenceable(212) %19, ptr noundef nonnull align 8 dereferenceable(8) %1)
  %20 = getelementptr inbounds nuw i8, ptr %.sroa.07.011, i64 16
  %.not = icmp eq ptr %20, %17
  br i1 %.not, label %.loopexit, label %.lr.ph

.loopexit:                                        ; preds = %.lr.ph, %16, %8, %5
  ret void
}